; Function Attrs: nounwind uwtable
define hidden void @_ZTv0_n24_N2cv11xfeatures2d10FREAK_ImplD1Ev(ptr noundef %0) unnamed_addr #13 align 2 personality ptr @__gxx_personality_v0 {
  %2 = load ptr, ptr %0, align 8, !tbaa !237
  %3 = getelementptr inbounds i8, ptr %2, i64 -24
  %4 = load i64, ptr %3, align 8
  %5 = getelementptr inbounds i8, ptr %0, i64 %4
  %6 = getelementptr inbounds nuw i8, ptr %5, i64 72
  %7 = load ptr, ptr %6, align 8, !tbaa !28
  %.not.i.i.i.i.i = icmp eq ptr %7, null
  br i1 %.not.i.i.i.i.i, label %_ZNSt6vectorIN2cv11xfeatures2d10FREAK_Impl12PatternPointESaIS3_EED2Ev.exit.i.i, label %8

8:                                                ; preds = %1
  tail call void @_ZdlPv(ptr noundef nonnull %7) #28
  br label %_ZNSt6vectorIN2cv11xfeatures2d10FREAK_Impl12PatternPointESaIS3_EED2Ev.exit.i.i

_ZNSt6vectorIN2cv11xfeatures2d10FREAK_Impl12PatternPointESaIS3_EED2Ev.exit.i.i: ; preds = %8, %1
  %9 = getelementptr inbounds nuw i8, ptr %5, i64 48
  %10 = load ptr, ptr %9, align 8, !tbaa !295
  %.not.i.i.i2.i.i = icmp eq ptr %10, null
  br i1 %.not.i.i.i2.i.i, label %_ZN2cv11xfeatures2d10FREAK_ImplD1Ev.exit, label %11

11:                                               ; preds = %_ZNSt6vectorIN2cv11xfeatures2d10FREAK_Impl12PatternPointESaIS3_EED2Ev.exit.i.i
  tail call void @_ZdlPv(ptr noundef nonnull %10) #28
  br label %_ZN2cv11xfeatures2d10FREAK_ImplD1Ev.exit

_ZN2cv11xfeatures2d10FREAK_ImplD1Ev.exit:         ; preds = %_ZNSt6vectorIN2cv11xfeatures2d10FREAK_Impl12PatternPointESaIS3_EED2Ev.exit.i.i, %11
  tail call void @_ZN2cv9Feature2DD2Ev(ptr noundef nonnull align 8 dereferenceable(1920) %5, ptr noundef nonnull getelementptr inbounds nuw (i8, ptr @_ZTTN2cv11xfeatures2d10FREAK_ImplE, i64 16)) #25
  tail call void @_ZN2cv9AlgorithmD2Ev(ptr noundef nonnull align 8 dereferenceable(1920) %5) #25
  ret void
}